; Function Attrs: nounwind uwtable
define internal void @by_dir_entry_free(ptr noundef captures(none) %0) #1 {
  %2 = load ptr, ptr %0, align 8, !tbaa !23
  %.not = icmp eq ptr %2, null
  br i1 %.not, label %4, label %3

3:                                                ; preds = %1
  tail call void @free(ptr noundef nonnull %2) #14
  br label %4

4:                                                ; preds = %3, %1
  %5 = getelementptr inbounds nuw i8, ptr %0, i64 16
  %6 = load ptr, ptr %5, align 8, !tbaa !26
  %.not6 = icmp eq ptr %6, null
  br i1 %.not6, label %8, label %7

7:                                                ; preds = %4
  tail call void @sk_pop_free(ptr noundef nonnull %6, ptr noundef nonnull @by_dir_hash_free) #14
  br label %8

8:                                                ; preds = %7, %4
  tail call void @free(ptr noundef nonnull %0) #14
  ret void
}